target datalayout = "e-m:e-p270:32:32-p271:32:32-p272:64:64-i64:64-i128:128-f80:128-n8:16:32:64-S128"
target triple = "x86_64-pc-linux-gnu"

%"struct.llvm::dwarf::FormParams" = type <{ i16, i8, i8, i8, i8 }>
%"class.llvm::DWARFAcceleratorTable" = type { ptr, %"class.llvm::DWARFDataExtractor", %"class.llvm::DataExtractor" }
%"class.llvm::DWARFDataExtractor" = type { %"class.llvm::DataExtractor.base", ptr, ptr }
%"class.llvm::DataExtractor.base" = type <{ %"class.llvm::StringRef", i8, i8 }>
%"class.llvm::StringRef" = type { ptr, i64 }
%"class.llvm::DataExtractor" = type <{ %"class.llvm::StringRef", i8, i8, [6 x i8] }>
%"class.llvm::AppleAcceleratorTable" = type <{ %"class.llvm::DWARFAcceleratorTable", %"struct.llvm::AppleAcceleratorTable::Header", [4 x i8], %"struct.llvm::AppleAcceleratorTable::HeaderData", %"struct.llvm::dwarf::FormParams", [2 x i8], i32, i8, [3 x i8] }>
%"struct.llvm::AppleAcceleratorTable::Header" = type { i32, i16, i16, i32, i32, i32 }
%"struct.llvm::AppleAcceleratorTable::HeaderData" = type { i64, %"class.llvm::SmallVector" }
%"class.llvm::SmallVector" = type <{ %"class.llvm::SmallVectorImpl", %"struct.llvm::SmallVectorStorage", [4 x i8] }>
%"class.llvm::SmallVectorImpl" = type { %"class.llvm::SmallVectorTemplateBase" }
%"class.llvm::SmallVectorTemplateBase" = type { %"class.llvm::SmallVectorTemplateCommon" }
%"class.llvm::SmallVectorTemplateCommon" = type { %"class.llvm::SmallVectorBase" }
%"class.llvm::SmallVectorBase" = type { ptr, i32, i32 }
%"struct.llvm::SmallVectorStorage" = type { [12 x i8] }
%"class.llvm::DWARFFormValue" = type { i16, i8, %"struct.llvm::DWARFFormValue::ValueType", ptr, ptr }
%"struct.llvm::DWARFFormValue::ValueType" = type { %union.anon, ptr, i64 }
%union.anon = type { i64 }
%"class.llvm::SmallVector.26" = type { %"class.llvm::SmallVectorImpl.17", %"struct.llvm::SmallVectorStorage.27" }
%"class.llvm::SmallVectorImpl.17" = type { %"class.llvm::SmallVectorTemplateBase.18" }
%"class.llvm::SmallVectorTemplateBase.18" = type { %"class.llvm::SmallVectorTemplateCommon.19" }
%"class.llvm::SmallVectorTemplateCommon.19" = type { %"class.llvm::SmallVectorBase" }
%"struct.llvm::SmallVectorStorage.27" = type { [144 x i8] }
%"class.llvm::AppleAcceleratorTable::Entry" = type { %"class.llvm::DWARFAcceleratorTable::Entry", ptr }
%"class.llvm::DWARFAcceleratorTable::Entry" = type { ptr, %"class.llvm::SmallVector.26" }
%"class.llvm::AppleAcceleratorTable::Iterator" = type <{ %"struct.llvm::AppleAcceleratorTable::EntryWithName", i64, i32, [4 x i8] }>
%"struct.llvm::AppleAcceleratorTable::EntryWithName" = type <{ %"class.llvm::AppleAcceleratorTable::Entry", i32, [4 x i8] }>

; Function Attrs: mustprogress nounwind uwtable
define linkonce_odr hidden noundef ptr @_ZN4llvm25SmallVectorTemplateCommonINS_14DWARFFormValueEvE3endEv(ptr noundef nonnull align 8 dereferenceable(16) %0) #0 comdat align 2 {
  %2 = alloca ptr, align 8
  store ptr %0, ptr %2, align 8
  %3 = load ptr, ptr %2, align 8
  %4 = call noundef ptr @_ZN4llvm25SmallVectorTemplateCommonINS_14DWARFFormValueEvE5beginEv(ptr noundef nonnull align 8 dereferenceable(16) %3)
  %5 = call noundef i64 @_ZNK4llvm15SmallVectorBaseIjE4sizeEv(ptr noundef nonnull align 8 dereferenceable(16) %3)
  %6 = getelementptr inbounds %"class.llvm::DWARFFormValue", ptr %4, i64 %5
  ret ptr %6
}

; Function Attrs: mustprogress nounwind uwtable
define linkonce_odr hidden noundef ptr @_ZN4llvm25SmallVectorTemplateCommonINS_14DWARFFormValueEvE5beginEv(ptr noundef nonnull align 8 dereferenceable(16) %0) #0 comdat align 2 {
  %2 = alloca ptr, align 8
  store ptr %0, ptr %2, align 8
  %3 = load ptr, ptr %2, align 8
  %4 = getelementptr inbounds nuw %"class.llvm::SmallVectorBase", ptr %3, i32 0, i32 0
  %5 = load ptr, ptr %4, align 8
  ret ptr %5
}

; Function Attrs: mustprogress nounwind uwtable
define linkonce_odr hidden noundef i32 @_ZNK4llvm21AppleAcceleratorTable22getHashDataEntryLengthEv(ptr noundef nonnull align 8 dereferenceable(149) %0) #0 comdat align 2 {
  %2 = alloca ptr, align 8
  store ptr %0, ptr %2, align 8
  %3 = load ptr, ptr %2, align 8
  %4 = getelementptr inbounds nuw %"class.llvm::AppleAcceleratorTable", ptr %3, i32 0, i32 6
  %5 = load i32, ptr %4, align 8
  ret i32 %5
}

; Function Attrs: mustprogress nounwind uwtable
define linkonce_odr hidden noundef nonnull align 8 dereferenceable(149) ptr @_ZNK4llvm21AppleAcceleratorTable8Iterator8getTableEv(ptr noundef nonnull align 8 dereferenceable(196) %0) #0 comdat align 2 {
  %2 = alloca ptr, align 8
  store ptr %0, ptr %2, align 8
  %3 = load ptr, ptr %2, align 8
  %4 = getelementptr inbounds nuw %"class.llvm::AppleAcceleratorTable::Iterator", ptr %3, i32 0, i32 0
  %5 = getelementptr inbounds nuw %"struct.llvm::AppleAcceleratorTable::EntryWithName", ptr %4, i32 0, i32 0
  %6 = getelementptr inbounds nuw %"class.llvm::AppleAcceleratorTable::Entry", ptr %5, i32 0, i32 1
  %7 = load ptr, ptr %6, align 8
  ret ptr %7
}

; Function Attrs: mustprogress nounwind uwtable
define dso_local void @_ZN4llvm21AppleAcceleratorTable5Entry7extractEPm(ptr noundef nonnull align 8 dereferenceable(176) %0, ptr noundef %1) #0 align 2 {
  %3 = alloca ptr, align 8
  %4 = alloca ptr, align 8
  %5 = alloca ptr, align 8
  %6 = alloca ptr, align 8
  %7 = alloca ptr, align 8
  %8 = alloca ptr, align 8
  %9 = alloca %"struct.llvm::dwarf::FormParams", align 2
  %10 = alloca i48, align 8
  store ptr %0, ptr %3, align 8
  store ptr %1, ptr %4, align 8
  %11 = load ptr, ptr %3, align 8
  %12 = getelementptr inbounds nuw %"class.llvm::DWARFAcceleratorTable::Entry", ptr %11, i32 0, i32 1
  store ptr %12, ptr %5, align 8
  %13 = load ptr, ptr %5, align 8
  %14 = call noundef ptr @_ZN4llvm25SmallVectorTemplateCommonINS_14DWARFFormValueEvE5beginEv(ptr noundef nonnull align 8 dereferenceable(16) %13)
  store ptr %14, ptr %6, align 8
  %15 = load ptr, ptr %5, align 8
  %16 = call noundef ptr @_ZN4llvm25SmallVectorTemplateCommonINS_14DWARFFormValueEvE3endEv(ptr noundef nonnull align 8 dereferenceable(16) %15)
  store ptr %16, ptr %7, align 8
  br label %17

17:                                               ; preds = %33, %2
  %18 = load ptr, ptr %6, align 8
  %19 = load ptr, ptr %7, align 8
  %20 = icmp ne ptr %18, %19
  br i1 %20, label %21, label %36

21:                                               ; preds = %17
  %22 = load ptr, ptr %6, align 8
  store ptr %22, ptr %8, align 8
  %23 = load ptr, ptr %8, align 8
  %24 = getelementptr inbounds nuw %"class.llvm::AppleAcceleratorTable::Entry", ptr %11, i32 0, i32 1
  %25 = load ptr, ptr %24, align 8
  %26 = getelementptr inbounds nuw %"class.llvm::DWARFAcceleratorTable", ptr %25, i32 0, i32 1
  %27 = load ptr, ptr %4, align 8
  %28 = getelementptr inbounds nuw %"class.llvm::AppleAcceleratorTable::Entry", ptr %11, i32 0, i32 1
  %29 = load ptr, ptr %28, align 8
  %30 = getelementptr inbounds nuw %"class.llvm::AppleAcceleratorTable", ptr %29, i32 0, i32 4
  call void @llvm.memcpy.p0.p0.i64(ptr align 2 %9, ptr align 8 %30, i64 6, i1 false)
  call void @llvm.memcpy.p0.p0.i64(ptr align 8 %10, ptr align 2 %9, i64 6, i1 false)
  %31 = load i48, ptr %10, align 8
  %32 = call noundef zeroext i1 @_ZN4llvm14DWARFFormValue12extractValueERKNS_18DWARFDataExtractorEPmNS_5dwarf10FormParamsEPKNS_12DWARFContextEPKNS_9DWARFUnitE(ptr noundef nonnull align 8 dereferenceable(48) %23, ptr noundef nonnull align 8 dereferenceable(40) %26, ptr noundef %27, i48 %31, ptr noundef null, ptr noundef null)
  br label %33

33:                                               ; preds = %21
  %34 = load ptr, ptr %6, align 8
  %35 = getelementptr inbounds %"class.llvm::DWARFFormValue", ptr %34, i32 1
  store ptr %35, ptr %6, align 8
  br label %17

36:                                               ; preds = %17
  ret void
}

; Function Attrs: mustprogress nounwind uwtable
define linkonce_odr hidden noundef zeroext i1 @_ZNK4llvm21AppleAcceleratorTable8Iterator5isEndEv(ptr noundef nonnull align 8 dereferenceable(196) %0) #0 comdat align 2 {
  %2 = alloca ptr, align 8
  store ptr %0, ptr %2, align 8
  %3 = load ptr, ptr %2, align 8
  %4 = getelementptr inbounds nuw %"class.llvm::AppleAcceleratorTable::Iterator", ptr %3, i32 0, i32 1
  %5 = load i64, ptr %4, align 8
  %6 = icmp eq i64 %5, -1
  ret i1 %6
}

; Function Attrs: mustprogress nounwind uwtable
define dso_local void @_ZN4llvm21AppleAcceleratorTable8Iterator21prepareNextEntryOrEndEv(ptr noundef nonnull align 8 dereferenceable(196) %0) #0 align 2 {
  %2 = alloca ptr, align 8
  %3 = alloca i64, align 8
  store ptr %0, ptr %2, align 8
  %4 = load ptr, ptr %2, align 8
  %5 = getelementptr inbounds nuw %"class.llvm::AppleAcceleratorTable::Iterator", ptr %4, i32 0, i32 2
  %6 = load i32, ptr %5, align 8
  %7 = icmp eq i32 %6, 0
  br i1 %7, label %8, label %9

8:                                                ; preds = %1
  call void @_ZN4llvm21AppleAcceleratorTable8Iterator22prepareNextStringOrEndEv(ptr noundef nonnull align 8 dereferenceable(196) %4)
  br label %9

9:                                                ; preds = %8, %1
  %10 = call noundef zeroext i1 @_ZNK4llvm21AppleAcceleratorTable8Iterator5isEndEv(ptr noundef nonnull align 8 dereferenceable(196) %4)
  br i1 %10, label %11, label %12

11:                                               ; preds = %9
  br label %26

12:                                               ; preds = %9
  %13 = getelementptr inbounds nuw %"class.llvm::AppleAcceleratorTable::Iterator", ptr %4, i32 0, i32 1
  %14 = load i64, ptr %13, align 8
  store i64 %14, ptr %3, align 8
  %15 = getelementptr inbounds nuw %"class.llvm::AppleAcceleratorTable::Iterator", ptr %4, i32 0, i32 0
  %16 = getelementptr inbounds nuw %"struct.llvm::AppleAcceleratorTable::EntryWithName", ptr %15, i32 0, i32 0
  call void @_ZN4llvm21AppleAcceleratorTable5Entry7extractEPm(ptr noundef nonnull align 8 dereferenceable(176) %16, ptr noundef %3)
  %17 = getelementptr inbounds nuw %"class.llvm::AppleAcceleratorTable::Iterator", ptr %4, i32 0, i32 2
  %18 = load i32, ptr %17, align 8
  %19 = add i32 %18, -1
  store i32 %19, ptr %17, align 8
  %20 = call noundef nonnull align 8 dereferenceable(149) ptr @_ZNK4llvm21AppleAcceleratorTable8Iterator8getTableEv(ptr noundef nonnull align 8 dereferenceable(196) %4)
  %21 = call noundef i32 @_ZNK4llvm21AppleAcceleratorTable22getHashDataEntryLengthEv(ptr noundef nonnull align 8 dereferenceable(149) %20)
  %22 = zext i32 %21 to i64
  %23 = getelementptr inbounds nuw %"class.llvm::AppleAcceleratorTable::Iterator", ptr %4, i32 0, i32 1
  %24 = load i64, ptr %23, align 8
  %25 = add i64 %24, %22
  store i64 %25, ptr %23, align 8
  br label %26

26:                                               ; preds = %12, %11
  ret void
}