; Function Attrs: mustprogress nounwind uwtable
define dso_local void @_ZN4llvm21AppleAcceleratorTable8Iterator21prepareNextEntryOrEndEv(ptr noundef nonnull align 8 dereferenceable(196) %0) local_unnamed_addr #3 align 2 {
  %2 = alloca i64, align 8
  %3 = getelementptr inbounds nuw i8, ptr %0, i64 192
  %4 = load i32, ptr %3, align 8
  %5 = icmp eq i32 %4, 0
  br i1 %5, label %6, label %7

6:                                                ; preds = %1
  tail call void @_ZN4llvm21AppleAcceleratorTable8Iterator22prepareNextStringOrEndEv(ptr noundef nonnull align 8 dereferenceable(196) %0)
  br label %7

7:                                                ; preds = %6, %1
  %8 = getelementptr inbounds nuw i8, ptr %0, i64 184
  %9 = load i64, ptr %8, align 8
  %10 = icmp eq i64 %9, -1
  br i1 %10, label %32, label %11

11:                                               ; preds = %7
  store i64 %9, ptr %2, align 8
  %12 = getelementptr inbounds nuw i8, ptr %0, i64 8
  %13 = load ptr, ptr %12, align 8
  %14 = tail call noundef i64 @_ZNK4llvm15SmallVectorBaseIjE4sizeEv(ptr noundef nonnull align 8 dereferenceable(16) %12) #27
  %15 = getelementptr inbounds %"class.llvm::DWARFFormValue", ptr %13, i64 %14
  %.not9.i = icmp eq i64 %14, 0
  br i1 %.not9.i, label %_ZN4llvm21AppleAcceleratorTable5Entry7extractEPm.exit, label %.lr.ph.i

.lr.ph.i:                                         ; preds = %11
  %16 = getelementptr inbounds nuw i8, ptr %0, i64 168
  br label %17

17:                                               ; preds = %17, %.lr.ph.i
  %.010.i = phi ptr [ %13, %.lr.ph.i ], [ %22, %17 ]
  %18 = load ptr, ptr %16, align 8
  %19 = getelementptr inbounds nuw i8, ptr %18, i64 8
  %20 = getelementptr inbounds nuw i8, ptr %18, i64 136
  %.sroa.0.0.copyload.i = load i48, ptr %20, align 8
  %21 = call noundef zeroext i1 @_ZN4llvm14DWARFFormValue12extractValueERKNS_18DWARFDataExtractorEPmNS_5dwarf10FormParamsEPKNS_12DWARFContextEPKNS_9DWARFUnitE(ptr noundef nonnull align 8 dereferenceable(48) %.010.i, ptr noundef nonnull align 8 dereferenceable(40) %19, ptr noundef nonnull %2, i48 %.sroa.0.0.copyload.i, ptr noundef null, ptr noundef null) #27
  %22 = getelementptr inbounds nuw i8, ptr %.010.i, i64 48
  %.not.i = icmp eq ptr %22, %15
  br i1 %.not.i, label %_ZN4llvm21AppleAcceleratorTable5Entry7extractEPm.exit, label %17

_ZN4llvm21AppleAcceleratorTable5Entry7extractEPm.exit: ; preds = %17, %11
  %23 = load i32, ptr %3, align 8
  %24 = add i32 %23, -1
  store i32 %24, ptr %3, align 8
  %25 = getelementptr inbounds nuw i8, ptr %0, i64 168
  %26 = load ptr, ptr %25, align 8
  %27 = getelementptr inbounds nuw i8, ptr %26, i64 144
  %28 = load i32, ptr %27, align 8
  %29 = zext i32 %28 to i64
  %30 = load i64, ptr %8, align 8
  %31 = add i64 %30, %29
  store i64 %31, ptr %8, align 8
  br label %32

32:                                               ; preds = %7, %_ZN4llvm21AppleAcceleratorTable5Entry7extractEPm.exit
  ret void
}